target datalayout = "e-m:e-p270:32:32-p271:32:32-p272:64:64-i64:64-i128:128-f80:128-n8:16:32:64-S128"
target triple = "x86_64-pc-linux-gnu"

%"class.std::__cxx11::basic_string" = type { %"struct.std::__cxx11::basic_string<char>::_Alloc_hider", i64, %union.anon }
%"struct.std::__cxx11::basic_string<char>::_Alloc_hider" = type { ptr }
%union.anon = type { i64, [8 x i8] }
%"class.std::allocator" = type { i8 }
%"class.cv::Mat" = type { i32, i32, i32, i32, ptr, ptr, ptr, ptr, ptr, ptr, %"struct.cv::MatSize", %"struct.cv::MatStep" }
%"struct.cv::MatSize" = type { ptr }
%"struct.cv::MatStep" = type { ptr, [2 x i64] }
%"class.cv::ml::SVMSGDImpl" = type { %"class.cv::ml::SVMSGD", %"class.cv::Mat", float, %"struct.cv::ml::SVMSGDImpl::SVMSGDParams" }
%"class.cv::ml::SVMSGD" = type { %"class.cv::ml::StatModel" }
%"class.cv::ml::StatModel" = type { %"class.cv::Algorithm" }
%"class.cv::Algorithm" = type { ptr }
%"struct.cv::ml::SVMSGDImpl::SVMSGDParams" = type { float, float, float, %"class.cv::TermCriteria", i32, i32 }
%"class.cv::TermCriteria" = type { i32, i32, double }

@.str.1 = private unnamed_addr constant [117 x i8] c"generated/home/dtcxzyw/WorkSpace/Projects/compilers/llvm-opt-benchmark/bench/opencv/opencv/modules/ml/src/svmsgd.cpp\00", align 1
@.str.35 = private unnamed_addr constant [29 x i8] c"SVMSGD model data is invalid\00", align 1
@__func__._ZN2cv2ml10SVMSGDImpl20setOptimalParametersEii = private unnamed_addr constant [21 x i8] c"setOptimalParameters\00", align 1

; Function Attrs: mustprogress nounwind uwtable
define linkonce_odr hidden void @_ZNSt15__new_allocatorIcE10deallocateEPcm(ptr noundef nonnull align 1 dereferenceable(1) %0, ptr noundef %1, i64 noundef %2) #9 comdat align 2 {
  %4 = alloca ptr, align 8
  %5 = alloca ptr, align 8
  %6 = alloca i64, align 8
  store ptr %0, ptr %4, align 8, !tbaa !155
  store ptr %1, ptr %5, align 8, !tbaa !40
  store i64 %2, ptr %6, align 8, !tbaa !48
  %7 = load ptr, ptr %5, align 8, !tbaa !40
  call void @_ZdlPv(ptr noundef %7) #22
  ret void
}

; Function Attrs: mustprogress nounwind uwtable
define linkonce_odr hidden noundef ptr @_ZNSt19__ptr_traits_ptr_toIPKcS0_Lb0EE10pointer_toERS0_(ptr noundef nonnull align 1 dereferenceable(1) %0) #9 comdat align 2 {
  %2 = alloca ptr, align 8
  store ptr %0, ptr %2, align 8, !tbaa !40
  %3 = load ptr, ptr %2, align 8, !tbaa !40
  ret ptr %3
}

; Function Attrs: mustprogress uwtable
define linkonce_odr hidden void @_ZNSt16allocator_traitsISaIcEE10deallocateERS0_Pcm(ptr noundef nonnull align 1 dereferenceable(1) %0, ptr noundef %1, i64 noundef %2) #4 comdat align 2 {
  %4 = alloca ptr, align 8
  %5 = alloca ptr, align 8
  %6 = alloca i64, align 8
  store ptr %0, ptr %4, align 8, !tbaa !38
  store ptr %1, ptr %5, align 8, !tbaa !40
  store i64 %2, ptr %6, align 8, !tbaa !48
  %7 = load ptr, ptr %4, align 8, !tbaa !38
  %8 = load ptr, ptr %5, align 8, !tbaa !40
  %9 = load i64, ptr %6, align 8, !tbaa !48
  call void @_ZNSt15__new_allocatorIcE10deallocateEPcm(ptr noundef nonnull align 1 dereferenceable(1) %7, ptr noundef %8, i64 noundef %9)
  ret void
}

; Function Attrs: mustprogress nounwind uwtable
define available_externally noundef nonnull align 1 dereferenceable(1) ptr @_ZNSt7__cxx1112basic_stringIcSt11char_traitsIcESaIcEE16_M_get_allocatorEv(ptr noundef nonnull align 8 dereferenceable(32) %0) #9 align 2 {
  %2 = alloca ptr, align 8
  store ptr %0, ptr %2, align 8, !tbaa !10
  %3 = load ptr, ptr %2, align 8
  %4 = getelementptr inbounds nuw %"class.std::__cxx11::basic_string", ptr %3, i32 0, i32 0
  ret ptr %4
}

; Function Attrs: mustprogress nounwind uwtable
define available_externally noundef ptr @_ZNKSt7__cxx1112basic_stringIcSt11char_traitsIcESaIcEE13_M_local_dataEv(ptr noundef nonnull align 8 dereferenceable(32) %0) #9 align 2 {
  %2 = alloca ptr, align 8
  store ptr %0, ptr %2, align 8, !tbaa !10
  %3 = load ptr, ptr %2, align 8
  %4 = getelementptr inbounds nuw %"class.std::__cxx11::basic_string", ptr %3, i32 0, i32 2
  %5 = getelementptr inbounds [16 x i8], ptr %4, i64 0, i64 0
  %6 = call noundef ptr @_ZNSt19__ptr_traits_ptr_toIPKcS0_Lb0EE10pointer_toERS0_(ptr noundef nonnull align 1 dereferenceable(1) %5) #3
  ret ptr %6
}

; Function Attrs: mustprogress nounwind uwtable
define available_externally noundef ptr @_ZNKSt7__cxx1112basic_stringIcSt11char_traitsIcESaIcEE7_M_dataEv(ptr noundef nonnull align 8 dereferenceable(32) %0) #9 align 2 {
  %2 = alloca ptr, align 8
  store ptr %0, ptr %2, align 8, !tbaa !10
  %3 = load ptr, ptr %2, align 8
  %4 = getelementptr inbounds nuw %"class.std::__cxx11::basic_string", ptr %3, i32 0, i32 0
  %5 = getelementptr inbounds nuw %"struct.std::__cxx11::basic_string<char>::_Alloc_hider", ptr %4, i32 0, i32 0
  %6 = load ptr, ptr %5, align 8, !tbaa !158
  ret ptr %6
}

; Function Attrs: mustprogress nounwind uwtable
define available_externally void @_ZNSt7__cxx1112basic_stringIcSt11char_traitsIcESaIcEE10_M_destroyEm(ptr noundef nonnull align 8 dereferenceable(32) %0, i64 noundef %1) #9 align 2 personality ptr @__gxx_personality_v0 {
  %3 = alloca ptr, align 8
  %4 = alloca i64, align 8
  %5 = alloca ptr, align 8
  %6 = alloca i32, align 4
  store ptr %0, ptr %3, align 8, !tbaa !10
  store i64 %1, ptr %4, align 8, !tbaa !48
  %7 = load ptr, ptr %3, align 8
  %8 = invoke noundef nonnull align 1 dereferenceable(1) ptr @_ZNSt7__cxx1112basic_stringIcSt11char_traitsIcESaIcEE16_M_get_allocatorEv(ptr noundef nonnull align 8 dereferenceable(32) %7)
          to label %9 unwind label %14

9:                                                ; preds = %2
  %10 = call noundef ptr @_ZNKSt7__cxx1112basic_stringIcSt11char_traitsIcESaIcEE7_M_dataEv(ptr noundef nonnull align 8 dereferenceable(32) %7)
  %11 = load i64, ptr %4, align 8, !tbaa !48
  %12 = add i64 %11, 1
  invoke void @_ZNSt16allocator_traitsISaIcEE10deallocateERS0_Pcm(ptr noundef nonnull align 1 dereferenceable(1) %8, ptr noundef %10, i64 noundef %12)
          to label %13 unwind label %14

13:                                               ; preds = %9
  ret void

14:                                               ; preds = %9, %2
  %15 = landingpad { ptr, i32 }
          filter [0 x ptr] zeroinitializer
  %16 = extractvalue { ptr, i32 } %15, 0
  store ptr %16, ptr %5, align 8
  %17 = extractvalue { ptr, i32 } %15, 1
  store i32 %17, ptr %6, align 4
  br label %18

18:                                               ; preds = %14
  %19 = load ptr, ptr %5, align 8
  call void @__cxa_call_unexpected(ptr %19) #20
  unreachable
}

; Function Attrs: mustprogress uwtable
define available_externally noundef zeroext i1 @_ZNKSt7__cxx1112basic_stringIcSt11char_traitsIcESaIcEE11_M_is_localEv(ptr noundef nonnull align 8 dereferenceable(32) %0) #4 align 2 {
  %2 = alloca i1, align 1
  %3 = alloca ptr, align 8
  store ptr %0, ptr %3, align 8, !tbaa !10
  %4 = load ptr, ptr %3, align 8
  %5 = call noundef ptr @_ZNKSt7__cxx1112basic_stringIcSt11char_traitsIcESaIcEE7_M_dataEv(ptr noundef nonnull align 8 dereferenceable(32) %4)
  %6 = call noundef ptr @_ZNKSt7__cxx1112basic_stringIcSt11char_traitsIcESaIcEE13_M_local_dataEv(ptr noundef nonnull align 8 dereferenceable(32) %4)
  %7 = icmp eq ptr %5, %6
  br i1 %7, label %8, label %14

8:                                                ; preds = %1
  %9 = getelementptr inbounds nuw %"class.std::__cxx11::basic_string", ptr %4, i32 0, i32 1
  %10 = load i64, ptr %9, align 8, !tbaa !157
  %11 = icmp ugt i64 %10, 15
  br i1 %11, label %12, label %13

12:                                               ; preds = %8
  unreachable

13:                                               ; preds = %8
  store i1 true, ptr %2, align 1
  br label %15

14:                                               ; preds = %1
  store i1 false, ptr %2, align 1
  br label %15

15:                                               ; preds = %14, %13
  %16 = load i1, ptr %2, align 1
  ret i1 %16
}

; Function Attrs: noinline noreturn nounwind uwtable
define linkonce_odr hidden void @__clang_call_terminate(ptr noundef %0) #13 comdat {
  %2 = call ptr @__cxa_begin_catch(ptr %0) #3
  call void @_ZSt9terminatev() #21
  unreachable
}

; Function Attrs: mustprogress uwtable
define available_externally void @_ZNSt7__cxx1112basic_stringIcSt11char_traitsIcESaIcEE10_M_disposeEv(ptr noundef nonnull align 8 dereferenceable(32) %0) #4 align 2 {
  %2 = alloca ptr, align 8
  store ptr %0, ptr %2, align 8, !tbaa !10
  %3 = load ptr, ptr %2, align 8
  %4 = call noundef zeroext i1 @_ZNKSt7__cxx1112basic_stringIcSt11char_traitsIcESaIcEE11_M_is_localEv(ptr noundef nonnull align 8 dereferenceable(32) %3)
  br i1 %4, label %8, label %5

5:                                                ; preds = %1
  %6 = getelementptr inbounds nuw %"class.std::__cxx11::basic_string", ptr %3, i32 0, i32 2
  %7 = load i64, ptr %6, align 8, !tbaa !115
  call void @_ZNSt7__cxx1112basic_stringIcSt11char_traitsIcESaIcEE10_M_destroyEm(ptr noundef nonnull align 8 dereferenceable(32) %3, i64 noundef %7) #3
  br label %8

8:                                                ; preds = %5, %1
  ret void
}

; Function Attrs: mustprogress nounwind uwtable
define linkonce_odr hidden void @_ZNSt15__new_allocatorIcEC2Ev(ptr noundef nonnull align 1 dereferenceable(1) %0) unnamed_addr #9 comdat align 2 {
  %2 = alloca ptr, align 8
  store ptr %0, ptr %2, align 8, !tbaa !155
  ret void
}

; Function Attrs: mustprogress nounwind uwtable
define linkonce_odr hidden void @_ZNSt15__new_allocatorIcED2Ev(ptr noundef nonnull align 1 dereferenceable(1) %0) unnamed_addr #9 comdat align 2 {
  %2 = alloca ptr, align 8
  store ptr %0, ptr %2, align 8, !tbaa !155
  ret void
}

; Function Attrs: mustprogress nounwind uwtable
define available_externally void @_ZNSt7__cxx1112basic_stringIcSt11char_traitsIcESaIcEED2Ev(ptr noundef nonnull align 8 dereferenceable(32) %0) unnamed_addr #9 align 2 personality ptr @__gxx_personality_v0 {
  %2 = alloca ptr, align 8
  store ptr %0, ptr %2, align 8, !tbaa !10
  %3 = load ptr, ptr %2, align 8
  invoke void @_ZNSt7__cxx1112basic_stringIcSt11char_traitsIcESaIcEE10_M_disposeEv(ptr noundef nonnull align 8 dereferenceable(32) %3)
          to label %4 unwind label %6

4:                                                ; preds = %1
  %5 = getelementptr inbounds nuw %"class.std::__cxx11::basic_string", ptr %3, i32 0, i32 0
  call void @_ZNSt15__new_allocatorIcED2Ev(ptr noundef nonnull align 8 dereferenceable(8) %5) #3
  ret void

6:                                                ; preds = %1
  %7 = landingpad { ptr, i32 }
          catch ptr null
  %8 = extractvalue { ptr, i32 } %7, 0
  call void @__clang_call_terminate(ptr %8) #21
  unreachable
}

; Function Attrs: mustprogress nounwind uwtable
define available_externally void @_ZNSaIcEC2Ev(ptr noundef nonnull align 1 dereferenceable(1) %0) unnamed_addr #9 align 2 {
  %2 = alloca ptr, align 8
  store ptr %0, ptr %2, align 8, !tbaa !38
  %3 = load ptr, ptr %2, align 8
  call void @_ZNSt15__new_allocatorIcEC2Ev(ptr noundef nonnull align 1 dereferenceable(1) %3) #3
  ret void
}

; Function Attrs: inlinehint mustprogress nounwind uwtable
define linkonce_odr hidden void @_ZN2cv12TermCriteriaC2Eiid(ptr noundef nonnull align 8 dereferenceable(16) %0, i32 noundef %1, i32 noundef %2, double noundef %3) unnamed_addr #7 comdat align 2 {
  %5 = alloca ptr, align 8
  %6 = alloca i32, align 4
  %7 = alloca i32, align 4
  %8 = alloca double, align 8
  store ptr %0, ptr %5, align 8, !tbaa !124
  store i32 %1, ptr %6, align 4, !tbaa !28
  store i32 %2, ptr %7, align 4, !tbaa !28
  store double %3, ptr %8, align 8, !tbaa !30
  %9 = load ptr, ptr %5, align 8
  %10 = getelementptr inbounds nuw %"class.cv::TermCriteria", ptr %9, i32 0, i32 0
  %11 = load i32, ptr %6, align 4, !tbaa !28
  store i32 %11, ptr %10, align 8, !tbaa !126
  %12 = getelementptr inbounds nuw %"class.cv::TermCriteria", ptr %9, i32 0, i32 1
  %13 = load i32, ptr %7, align 4, !tbaa !28
  store i32 %13, ptr %12, align 4, !tbaa !127
  %14 = getelementptr inbounds nuw %"class.cv::TermCriteria", ptr %9, i32 0, i32 2
  %15 = load double, ptr %8, align 8, !tbaa !30
  store double %15, ptr %14, align 8, !tbaa !128
  ret void
}

; Function Attrs: mustprogress uwtable
define hidden void @_ZN2cv2ml10SVMSGDImpl20setOptimalParametersEii(ptr noundef nonnull align 8 dereferenceable(152) %0, i32 noundef %1, i32 noundef %2) unnamed_addr #4 align 2 personality ptr @__gxx_personality_v0 {
  %4 = alloca ptr, align 8
  %5 = alloca i32, align 4
  %6 = alloca i32, align 4
  %7 = alloca %"class.cv::TermCriteria", align 8
  %8 = alloca %"class.cv::TermCriteria", align 8
  %9 = alloca %"class.std::__cxx11::basic_string", align 8
  %10 = alloca %"class.std::allocator", align 1
  %11 = alloca ptr, align 8
  %12 = alloca i32, align 4
  store ptr %0, ptr %4, align 8, !tbaa !62
  store i32 %1, ptr %5, align 4, !tbaa !28
  store i32 %2, ptr %6, align 4, !tbaa !28
  %13 = load ptr, ptr %4, align 8
  %14 = load i32, ptr %5, align 4, !tbaa !28
  switch i32 %14, label %59 [
    i32 0, label %15
    i32 1, label %37
  ]

15:                                               ; preds = %3
  %16 = getelementptr inbounds nuw %"class.cv::ml::SVMSGDImpl", ptr %13, i32 0, i32 3
  %17 = getelementptr inbounds nuw %"struct.cv::ml::SVMSGDImpl::SVMSGDParams", ptr %16, i32 0, i32 4
  store i32 0, ptr %17, align 8, !tbaa !82
  %18 = load i32, ptr %6, align 4, !tbaa !28
  %19 = icmp eq i32 %18, 0
  br i1 %19, label %20, label %21

20:                                               ; preds = %15
  br label %25

21:                                               ; preds = %15
  %22 = load i32, ptr %6, align 4, !tbaa !28
  %23 = icmp eq i32 %22, 1
  %24 = select i1 %23, i32 1, i32 -1
  br label %25

25:                                               ; preds = %21, %20
  %26 = phi i32 [ 0, %20 ], [ %24, %21 ]
  %27 = getelementptr inbounds nuw %"class.cv::ml::SVMSGDImpl", ptr %13, i32 0, i32 3
  %28 = getelementptr inbounds nuw %"struct.cv::ml::SVMSGDImpl::SVMSGDParams", ptr %27, i32 0, i32 5
  store i32 %26, ptr %28, align 4, !tbaa !89
  %29 = getelementptr inbounds nuw %"class.cv::ml::SVMSGDImpl", ptr %13, i32 0, i32 3
  %30 = getelementptr inbounds nuw %"struct.cv::ml::SVMSGDImpl::SVMSGDParams", ptr %29, i32 0, i32 0
  store float 0x3F1A36E2E0000000, ptr %30, align 8, !tbaa !68
  %31 = getelementptr inbounds nuw %"class.cv::ml::SVMSGDImpl", ptr %13, i32 0, i32 3
  %32 = getelementptr inbounds nuw %"struct.cv::ml::SVMSGDImpl::SVMSGDParams", ptr %31, i32 0, i32 1
  store float 0x3FA99999A0000000, ptr %32, align 4, !tbaa !86
  %33 = getelementptr inbounds nuw %"class.cv::ml::SVMSGDImpl", ptr %13, i32 0, i32 3
  %34 = getelementptr inbounds nuw %"struct.cv::ml::SVMSGDImpl::SVMSGDParams", ptr %33, i32 0, i32 2
  store float 1.000000e+00, ptr %34, align 8, !tbaa !87
  call void @llvm.lifetime.start.p0(i64 16, ptr %7) #3
  call void @_ZN2cv12TermCriteriaC2Eiid(ptr noundef nonnull align 8 dereferenceable(16) %7, i32 noundef 3, i32 noundef 100000, double noundef 1.000000e-05)
  %35 = getelementptr inbounds nuw %"class.cv::ml::SVMSGDImpl", ptr %13, i32 0, i32 3
  %36 = getelementptr inbounds nuw %"struct.cv::ml::SVMSGDImpl::SVMSGDParams", ptr %35, i32 0, i32 3
  call void @llvm.memcpy.p0.p0.i64(ptr align 8 %36, ptr align 8 %7, i64 16, i1 false), !tbaa.struct !123
  call void @llvm.lifetime.end.p0(i64 16, ptr %7) #3
  br label %71

37:                                               ; preds = %3
  %38 = getelementptr inbounds nuw %"class.cv::ml::SVMSGDImpl", ptr %13, i32 0, i32 3
  %39 = getelementptr inbounds nuw %"struct.cv::ml::SVMSGDImpl::SVMSGDParams", ptr %38, i32 0, i32 4
  store i32 1, ptr %39, align 8, !tbaa !82
  %40 = load i32, ptr %6, align 4, !tbaa !28
  %41 = icmp eq i32 %40, 0
  br i1 %41, label %42, label %43

42:                                               ; preds = %37
  br label %47

43:                                               ; preds = %37
  %44 = load i32, ptr %6, align 4, !tbaa !28
  %45 = icmp eq i32 %44, 1
  %46 = select i1 %45, i32 1, i32 -1
  br label %47

47:                                               ; preds = %43, %42
  %48 = phi i32 [ 0, %42 ], [ %46, %43 ]
  %49 = getelementptr inbounds nuw %"class.cv::ml::SVMSGDImpl", ptr %13, i32 0, i32 3
  %50 = getelementptr inbounds nuw %"struct.cv::ml::SVMSGDImpl::SVMSGDParams", ptr %49, i32 0, i32 5
  store i32 %48, ptr %50, align 4, !tbaa !89
  %51 = getelementptr inbounds nuw %"class.cv::ml::SVMSGDImpl", ptr %13, i32 0, i32 3
  %52 = getelementptr inbounds nuw %"struct.cv::ml::SVMSGDImpl::SVMSGDParams", ptr %51, i32 0, i32 0
  store float 0x3EE4F8B580000000, ptr %52, align 8, !tbaa !68
  %53 = getelementptr inbounds nuw %"class.cv::ml::SVMSGDImpl", ptr %13, i32 0, i32 3
  %54 = getelementptr inbounds nuw %"struct.cv::ml::SVMSGDImpl::SVMSGDParams", ptr %53, i32 0, i32 1
  store float 0x3FA99999A0000000, ptr %54, align 4, !tbaa !86
  %55 = getelementptr inbounds nuw %"class.cv::ml::SVMSGDImpl", ptr %13, i32 0, i32 3
  %56 = getelementptr inbounds nuw %"struct.cv::ml::SVMSGDImpl::SVMSGDParams", ptr %55, i32 0, i32 2
  store float 7.500000e-01, ptr %56, align 8, !tbaa !87
  call void @llvm.lifetime.start.p0(i64 16, ptr %8) #3
  call void @_ZN2cv12TermCriteriaC2Eiid(ptr noundef nonnull align 8 dereferenceable(16) %8, i32 noundef 3, i32 noundef 100000, double noundef 1.000000e-05)
  %57 = getelementptr inbounds nuw %"class.cv::ml::SVMSGDImpl", ptr %13, i32 0, i32 3
  %58 = getelementptr inbounds nuw %"struct.cv::ml::SVMSGDImpl::SVMSGDParams", ptr %57, i32 0, i32 3
  call void @llvm.memcpy.p0.p0.i64(ptr align 8 %58, ptr align 8 %8, i64 16, i1 false), !tbaa.struct !123
  call void @llvm.lifetime.end.p0(i64 16, ptr %8) #3
  br label %71

59:                                               ; preds = %3
  call void @llvm.lifetime.start.p0(i64 32, ptr %9) #3
  call void @llvm.lifetime.start.p0(i64 1, ptr %10) #3
  call void @_ZNSaIcEC2Ev(ptr noundef nonnull align 1 dereferenceable(1) %10) #3
  invoke void @_ZNSt7__cxx1112basic_stringIcSt11char_traitsIcESaIcEEC2EPKcRKS3_(ptr noundef nonnull align 8 dereferenceable(32) %9, ptr noundef @.str.35, ptr noundef nonnull align 1 dereferenceable(1) %10)
          to label %60 unwind label %62

60:                                               ; preds = %59
  invoke void @_ZN2cv5errorEiRKNSt7__cxx1112basic_stringIcSt11char_traitsIcESaIcEEEPKcS9_i(i32 noundef -212, ptr noundef nonnull align 8 dereferenceable(32) %9, ptr noundef @__func__._ZN2cv2ml10SVMSGDImpl20setOptimalParametersEii, ptr noundef @.str.1, i32 noundef 520) #20
          to label %61 unwind label %66

61:                                               ; preds = %60
  unreachable

62:                                               ; preds = %59
  %63 = landingpad { ptr, i32 }
          cleanup
  %64 = extractvalue { ptr, i32 } %63, 0
  store ptr %64, ptr %11, align 8
  %65 = extractvalue { ptr, i32 } %63, 1
  store i32 %65, ptr %12, align 4
  br label %70

66:                                               ; preds = %60
  %67 = landingpad { ptr, i32 }
          cleanup
  %68 = extractvalue { ptr, i32 } %67, 0
  store ptr %68, ptr %11, align 8
  %69 = extractvalue { ptr, i32 } %67, 1
  store i32 %69, ptr %12, align 4
  call void @_ZNSt7__cxx1112basic_stringIcSt11char_traitsIcESaIcEED2Ev(ptr noundef nonnull align 8 dereferenceable(32) %9) #3
  br label %70

70:                                               ; preds = %66, %62
  call void @_ZNSt15__new_allocatorIcED2Ev(ptr noundef nonnull align 1 dereferenceable(1) %10) #3
  call void @llvm.lifetime.end.p0(i64 1, ptr %10) #3
  call void @llvm.lifetime.end.p0(i64 32, ptr %9) #3
  br label %72

71:                                               ; preds = %47, %25
  ret void

72:                                               ; preds = %70
  %73 = load ptr, ptr %11, align 8
  %74 = load i32, ptr %12, align 4
  %75 = insertvalue { ptr, i32 } poison, ptr %73, 0
  %76 = insertvalue { ptr, i32 } %75, i32 %74, 1
  resume { ptr, i32 } %76
}