; Function Attrs: mustprogress uwtable
define hidden void @_ZN2cv2ml10SVMSGDImpl20setOptimalParametersEii(ptr noundef nonnull writeonly align 8 captures(none) dereferenceable(152) %0, i32 noundef %1, i32 noundef %2) unnamed_addr #3 align 2 personality ptr @__gxx_personality_v0 {
  %4 = alloca %"class.std::__cxx11::basic_string", align 8
  %5 = alloca %"class.std::allocator", align 1
  switch i32 %1, label %7 [
    i32 0, label %17
    i32 1, label %6
  ]

6:                                                ; preds = %3
  br label %17

7:                                                ; preds = %3
  call void @llvm.lifetime.start.p0(i64 32, ptr nonnull %4) #21
  call void @llvm.lifetime.start.p0(i64 1, ptr nonnull %5) #21
  call void @_ZNSt7__cxx1112basic_stringIcSt11char_traitsIcESaIcEEC2EPKcRKS3_(ptr noundef nonnull align 8 dereferenceable(32) %4, ptr noundef nonnull @.str.35, ptr noundef nonnull align 1 dereferenceable(1) %5)
  invoke void @_ZN2cv5errorEiRKNSt7__cxx1112basic_stringIcSt11char_traitsIcESaIcEEEPKcS9_i(i32 noundef -212, ptr noundef nonnull align 8 dereferenceable(32) %4, ptr noundef nonnull @__func__._ZN2cv2ml10SVMSGDImpl20setOptimalParametersEii, ptr noundef nonnull @.str.1, i32 noundef 520) #23
          to label %8 unwind label %9

8:                                                ; preds = %7
  unreachable

9:                                                ; preds = %7
  %10 = landingpad { ptr, i32 }
          cleanup
  %11 = load ptr, ptr %4, align 8, !tbaa !29
  %12 = getelementptr inbounds nuw i8, ptr %4, i64 16
  %13 = icmp eq ptr %11, %12
  br i1 %13, label %_ZNKSt7__cxx1112basic_stringIcSt11char_traitsIcESaIcEE11_M_is_localEv.exit.thread.i.i, label %_ZNKSt7__cxx1112basic_stringIcSt11char_traitsIcESaIcEE11_M_is_localEv.exit.i.i

_ZNKSt7__cxx1112basic_stringIcSt11char_traitsIcESaIcEE11_M_is_localEv.exit.thread.i.i: ; preds = %9
  %14 = getelementptr inbounds nuw i8, ptr %4, i64 8
  %15 = load i64, ptr %14, align 8, !tbaa !25
  %16 = icmp ult i64 %15, 16
  call void @llvm.assume(i1 %16)
  br label %_ZNSt7__cxx1112basic_stringIcSt11char_traitsIcESaIcEED2Ev.exit

_ZNKSt7__cxx1112basic_stringIcSt11char_traitsIcESaIcEE11_M_is_localEv.exit.i.i: ; preds = %9
  call void @_ZdlPv(ptr noundef %11) #22
  br label %_ZNSt7__cxx1112basic_stringIcSt11char_traitsIcESaIcEED2Ev.exit

_ZNSt7__cxx1112basic_stringIcSt11char_traitsIcESaIcEED2Ev.exit: ; preds = %_ZNKSt7__cxx1112basic_stringIcSt11char_traitsIcESaIcEE11_M_is_localEv.exit.i.i, %_ZNKSt7__cxx1112basic_stringIcSt11char_traitsIcESaIcEE11_M_is_localEv.exit.thread.i.i
  call void @llvm.lifetime.end.p0(i64 1, ptr nonnull %5) #21
  call void @llvm.lifetime.end.p0(i64 32, ptr nonnull %4) #21
  resume { ptr, i32 } %10

17:                                               ; preds = %3, %6
  %.sink14 = phi float [ 0x3EE4F8B580000000, %6 ], [ 0x3F1A36E2E0000000, %3 ]
  %.sink = phi float [ 7.500000e-01, %6 ], [ 1.000000e+00, %3 ]
  %18 = getelementptr inbounds nuw i8, ptr %0, i64 112
  %19 = getelementptr inbounds nuw i8, ptr %0, i64 144
  store i32 %1, ptr %19, align 8, !tbaa !117
  %20 = icmp eq i32 %2, 0
  %21 = icmp eq i32 %2, 1
  %22 = select i1 %21, i32 1, i32 -1
  %23 = select i1 %20, i32 0, i32 %22
  %24 = getelementptr inbounds nuw i8, ptr %0, i64 148
  store i32 %23, ptr %24, align 4, !tbaa !136
  store float %.sink14, ptr %18, align 8, !tbaa !96
  %25 = getelementptr inbounds nuw i8, ptr %0, i64 116
  store float 0x3FA99999A0000000, ptr %25, align 4, !tbaa !128
  %26 = getelementptr inbounds nuw i8, ptr %0, i64 120
  store float %.sink, ptr %26, align 8, !tbaa !129
  %27 = getelementptr inbounds nuw i8, ptr %0, i64 128
  store i32 3, ptr %27, align 8, !tbaa !42
  %.sroa.4.0..sroa_idx = getelementptr inbounds nuw i8, ptr %0, i64 132
  store i32 100000, ptr %.sroa.4.0..sroa_idx, align 4, !tbaa !42
  %.sroa.5.0..sroa_idx = getelementptr inbounds nuw i8, ptr %0, i64 136
  store double 1.000000e-05, ptr %.sroa.5.0..sroa_idx, align 8, !tbaa !70
  ret void
}